target datalayout = "e-m:e-p270:32:32-p271:32:32-p272:64:64-i64:64-i128:128-f80:128-n8:16:32:64-S128"
target triple = "x86_64-pc-linux-gnu"

%struct.hb_paint_funcs_t = type { %struct.hb_object_header_t, %struct.anon, ptr, ptr }
%struct.hb_object_header_t = type { %struct.hb_reference_count_t, %struct.hb_atomic_int_t, %struct.hb_atomic_ptr_t }
%struct.hb_reference_count_t = type { %struct.hb_atomic_int_t }
%struct.hb_atomic_int_t = type { i32 }
%struct.hb_atomic_ptr_t = type { ptr }
%struct.anon = type { ptr, ptr, ptr, ptr, ptr, ptr, ptr, ptr, ptr, ptr, ptr, ptr, ptr, ptr }
%struct.anon.1 = type { ptr, ptr, ptr, ptr, ptr, ptr, ptr, ptr, ptr, ptr, ptr, ptr, ptr, ptr }

; Function Attrs: mustprogress uwtable
define linkonce_odr hidden void @_ZN16hb_paint_funcs_t19push_clip_rectangleEPvffff(ptr noundef nonnull align 8 dereferenceable(144) %0, ptr noundef %1, float noundef %2, float noundef %3, float noundef %4, float noundef %5) #0 comdat align 2 {
  %7 = alloca ptr, align 8
  %8 = alloca ptr, align 8
  %9 = alloca float, align 4
  %10 = alloca float, align 4
  %11 = alloca float, align 4
  %12 = alloca float, align 4
  store ptr %0, ptr %7, align 8
  store ptr %1, ptr %8, align 8
  store float %2, ptr %9, align 4
  store float %3, ptr %10, align 4
  store float %4, ptr %11, align 4
  store float %5, ptr %12, align 4
  %13 = load ptr, ptr %7, align 8
  %14 = getelementptr inbounds %struct.hb_paint_funcs_t, ptr %13, i32 0, i32 1
  %15 = getelementptr inbounds %struct.anon, ptr %14, i32 0, i32 4
  %16 = load ptr, ptr %15, align 8
  %17 = load ptr, ptr %8, align 8
  %18 = load float, ptr %9, align 4
  %19 = load float, ptr %10, align 4
  %20 = load float, ptr %11, align 4
  %21 = load float, ptr %12, align 4
  %22 = getelementptr inbounds %struct.hb_paint_funcs_t, ptr %13, i32 0, i32 2
  %23 = load ptr, ptr %22, align 8
  %24 = icmp ne ptr %23, null
  br i1 %24, label %26, label %25

25:                                               ; preds = %6
  br label %31

26:                                               ; preds = %6
  %27 = getelementptr inbounds %struct.hb_paint_funcs_t, ptr %13, i32 0, i32 2
  %28 = load ptr, ptr %27, align 8
  %29 = getelementptr inbounds %struct.anon.1, ptr %28, i32 0, i32 4
  %30 = load ptr, ptr %29, align 8
  br label %31

31:                                               ; preds = %26, %25
  %32 = phi ptr [ null, %25 ], [ %30, %26 ]
  call void %16(ptr noundef %13, ptr noundef %17, float noundef %18, float noundef %19, float noundef %20, float noundef %21, ptr noundef %32)
  ret void
}

; Function Attrs: mustprogress uwtable
define hidden void @hb_paint_push_clip_rectangle(ptr noundef %0, ptr noundef %1, float noundef %2, float noundef %3, float noundef %4, float noundef %5) #0 {
  %7 = alloca ptr, align 8
  %8 = alloca ptr, align 8
  %9 = alloca float, align 4
  %10 = alloca float, align 4
  %11 = alloca float, align 4
  %12 = alloca float, align 4
  store ptr %0, ptr %7, align 8
  store ptr %1, ptr %8, align 8
  store float %2, ptr %9, align 4
  store float %3, ptr %10, align 4
  store float %4, ptr %11, align 4
  store float %5, ptr %12, align 4
  %13 = load ptr, ptr %7, align 8
  %14 = load ptr, ptr %8, align 8
  %15 = load float, ptr %9, align 4
  %16 = load float, ptr %10, align 4
  %17 = load float, ptr %11, align 4
  %18 = load float, ptr %12, align 4
  call void @_ZN16hb_paint_funcs_t19push_clip_rectangleEPvffff(ptr noundef nonnull align 8 dereferenceable(144) %13, ptr noundef %14, float noundef %15, float noundef %16, float noundef %17, float noundef %18)
  ret void
}