; Function Attrs: mustprogress uwtable
define hidden void @hb_paint_push_clip_rectangle(ptr noundef %0, ptr noundef %1, float noundef %2, float noundef %3, float noundef %4, float noundef %5) local_unnamed_addr #0 {
  %7 = getelementptr inbounds i8, ptr %0, i64 48
  %8 = load ptr, ptr %7, align 8
  %9 = getelementptr inbounds i8, ptr %0, i64 128
  %10 = load ptr, ptr %9, align 8
  %.not.i = icmp eq ptr %10, null
  br i1 %.not.i, label %_ZN16hb_paint_funcs_t19push_clip_rectangleEPvffff.exit, label %11

11:                                               ; preds = %6
  %12 = getelementptr inbounds i8, ptr %10, i64 32
  %13 = load ptr, ptr %12, align 8
  br label %_ZN16hb_paint_funcs_t19push_clip_rectangleEPvffff.exit

_ZN16hb_paint_funcs_t19push_clip_rectangleEPvffff.exit: ; preds = %6, %11
  %14 = phi ptr [ %13, %11 ], [ null, %6 ]
  tail call void %8(ptr noundef nonnull %0, ptr noundef %1, float noundef %2, float noundef %3, float noundef %4, float noundef %5, ptr noundef %14)
  ret void
}